; Function Attrs: nounwind sspstrong uwtable
define dso_local noundef zeroext i1 @visit_type_ImageInfoSpecificRbd_members(ptr noundef %v, ptr noundef %obj, ptr noundef %errp) local_unnamed_addr #0 {
entry:
  %value.i = alloca i32, align 4
  %call = tail call zeroext i1 @visit_optional(ptr noundef %v, ptr noundef nonnull @.str.29, ptr noundef %obj) #5
  br i1 %call, label %if.then, label %if.end3

if.then:                                          ; preds = %entry
  %encryption_format = getelementptr inbounds nuw i8, ptr %obj, i64 4
  call void @llvm.lifetime.start.p0(i64 4, ptr nonnull %value.i)
  %0 = load i32, ptr %encryption_format, align 4
  store i32 %0, ptr %value.i, align 4
  %call.i = call zeroext i1 @visit_type_enum(ptr noundef %v, ptr noundef nonnull @.str.29, ptr noundef nonnull %value.i, ptr noundef nonnull @RbdImageEncryptionFormat_lookup, ptr noundef %errp) #5
  %1 = load i32, ptr %value.i, align 4
  store i32 %1, ptr %encryption_format, align 4
  call void @llvm.lifetime.end.p0(i64 4, ptr nonnull %value.i)
  br i1 %call.i, label %if.end3, label %return

if.end3:                                          ; preds = %if.then, %entry
  br label %return

return:                                           ; preds = %if.then, %if.end3
  %retval.0 = phi i1 [ true, %if.end3 ], [ false, %if.then ]
  ret i1 %retval.0
}